target datalayout = "e-m:e-p270:32:32-p271:32:32-p272:64:64-i64:64-i128:128-f80:128-n8:16:32:64-S128"
target triple = "x86_64-pc-linux-gnu"

%struct.AVIndexEntry = type { i64, i64, i32, i32 }

; Function Attrs: nounwind uwtable
define i32 @ff_index_search_timestamp(ptr noundef %0, i32 noundef %1, i64 noundef %2, i32 noundef %3) #0 {
  %5 = alloca i32, align 4
  %6 = alloca ptr, align 8
  %7 = alloca i32, align 4
  %8 = alloca i64, align 8
  %9 = alloca i32, align 4
  %10 = alloca i32, align 4
  %11 = alloca i32, align 4
  %12 = alloca i32, align 4
  %13 = alloca i64, align 8
  %14 = alloca i32, align 4
  store ptr %0, ptr %6, align 8, !tbaa !65
  store i32 %1, ptr %7, align 4, !tbaa !13
  store i64 %2, ptr %8, align 8, !tbaa !11
  store i32 %3, ptr %9, align 4, !tbaa !13
  call void @llvm.lifetime.start.p0(i64 4, ptr %10) #11
  call void @llvm.lifetime.start.p0(i64 4, ptr %11) #11
  call void @llvm.lifetime.start.p0(i64 4, ptr %12) #11
  call void @llvm.lifetime.start.p0(i64 8, ptr %13) #11
  store i32 -1, ptr %10, align 4, !tbaa !13
  %15 = load i32, ptr %7, align 4, !tbaa !13
  store i32 %15, ptr %11, align 4, !tbaa !13
  %16 = load i32, ptr %11, align 4, !tbaa !13
  %17 = icmp ne i32 %16, 0
  br i1 %17, label %18, label %31

18:                                               ; preds = %4
  %19 = load ptr, ptr %6, align 8, !tbaa !65
  %20 = load i32, ptr %11, align 4, !tbaa !13
  %21 = sub nsw i32 %20, 1
  %22 = sext i32 %21 to i64
  %23 = getelementptr inbounds %struct.AVIndexEntry, ptr %19, i64 %22
  %24 = getelementptr inbounds nuw %struct.AVIndexEntry, ptr %23, i32 0, i32 1
  %25 = load i64, ptr %24, align 8, !tbaa !66
  %26 = load i64, ptr %8, align 8, !tbaa !11
  %27 = icmp slt i64 %25, %26
  br i1 %27, label %28, label %31

28:                                               ; preds = %18
  %29 = load i32, ptr %11, align 4, !tbaa !13
  %30 = sub nsw i32 %29, 1
  store i32 %30, ptr %10, align 4, !tbaa !13
  br label %31

31:                                               ; preds = %28, %18, %4
  br label %32

32:                                               ; preds = %101, %31
  %33 = load i32, ptr %11, align 4, !tbaa !13
  %34 = load i32, ptr %10, align 4, !tbaa !13
  %35 = sub nsw i32 %33, %34
  %36 = icmp sgt i32 %35, 1
  br i1 %36, label %37, label %102

37:                                               ; preds = %32
  %38 = load i32, ptr %10, align 4, !tbaa !13
  %39 = load i32, ptr %11, align 4, !tbaa !13
  %40 = add nsw i32 %38, %39
  %41 = ashr i32 %40, 1
  store i32 %41, ptr %12, align 4, !tbaa !13
  br label %42

42:                                               ; preds = %82, %37
  %43 = load ptr, ptr %6, align 8, !tbaa !65
  %44 = load i32, ptr %12, align 4, !tbaa !13
  %45 = sext i32 %44 to i64
  %46 = getelementptr inbounds %struct.AVIndexEntry, ptr %43, i64 %45
  %47 = getelementptr inbounds nuw %struct.AVIndexEntry, ptr %46, i32 0, i32 2
  %48 = load i32, ptr %47, align 8
  %49 = shl i32 %48, 30
  %50 = ashr i32 %49, 30
  %51 = and i32 %50, 2
  %52 = icmp ne i32 %51, 0
  br i1 %52, label %53, label %62

53:                                               ; preds = %42
  %54 = load i32, ptr %12, align 4, !tbaa !13
  %55 = load i32, ptr %11, align 4, !tbaa !13
  %56 = icmp slt i32 %54, %55
  br i1 %56, label %57, label %62

57:                                               ; preds = %53
  %58 = load i32, ptr %12, align 4, !tbaa !13
  %59 = load i32, ptr %7, align 4, !tbaa !13
  %60 = sub nsw i32 %59, 1
  %61 = icmp slt i32 %58, %60
  br label %62

62:                                               ; preds = %57, %53, %42
  %63 = phi i1 [ false, %53 ], [ false, %42 ], [ %61, %57 ]
  br i1 %63, label %64, label %83

64:                                               ; preds = %62
  %65 = load i32, ptr %12, align 4, !tbaa !13
  %66 = add nsw i32 %65, 1
  store i32 %66, ptr %12, align 4, !tbaa !13
  %67 = load i32, ptr %12, align 4, !tbaa !13
  %68 = load i32, ptr %11, align 4, !tbaa !13
  %69 = icmp eq i32 %67, %68
  br i1 %69, label %70, label %82

70:                                               ; preds = %64
  %71 = load ptr, ptr %6, align 8, !tbaa !65
  %72 = load i32, ptr %12, align 4, !tbaa !13
  %73 = sext i32 %72 to i64
  %74 = getelementptr inbounds %struct.AVIndexEntry, ptr %71, i64 %73
  %75 = getelementptr inbounds nuw %struct.AVIndexEntry, ptr %74, i32 0, i32 1
  %76 = load i64, ptr %75, align 8, !tbaa !66
  %77 = load i64, ptr %8, align 8, !tbaa !11
  %78 = icmp sge i64 %76, %77
  br i1 %78, label %79, label %82

79:                                               ; preds = %70
  %80 = load i32, ptr %11, align 4, !tbaa !13
  %81 = sub nsw i32 %80, 1
  store i32 %81, ptr %12, align 4, !tbaa !13
  br label %83

82:                                               ; preds = %70, %64
  br label %42, !llvm.loop !70

83:                                               ; preds = %79, %62
  %84 = load ptr, ptr %6, align 8, !tbaa !65
  %85 = load i32, ptr %12, align 4, !tbaa !13
  %86 = sext i32 %85 to i64
  %87 = getelementptr inbounds %struct.AVIndexEntry, ptr %84, i64 %86
  %88 = getelementptr inbounds nuw %struct.AVIndexEntry, ptr %87, i32 0, i32 1
  %89 = load i64, ptr %88, align 8, !tbaa !66
  store i64 %89, ptr %13, align 8, !tbaa !11
  %90 = load i64, ptr %13, align 8, !tbaa !11
  %91 = load i64, ptr %8, align 8, !tbaa !11
  %92 = icmp sge i64 %90, %91
  br i1 %92, label %93, label %95

93:                                               ; preds = %83
  %94 = load i32, ptr %12, align 4, !tbaa !13
  store i32 %94, ptr %11, align 4, !tbaa !13
  br label %95

95:                                               ; preds = %93, %83
  %96 = load i64, ptr %13, align 8, !tbaa !11
  %97 = load i64, ptr %8, align 8, !tbaa !11
  %98 = icmp sle i64 %96, %97
  br i1 %98, label %99, label %101

99:                                               ; preds = %95
  %100 = load i32, ptr %12, align 4, !tbaa !13
  store i32 %100, ptr %10, align 4, !tbaa !13
  br label %101

101:                                              ; preds = %99, %95
  br label %32, !llvm.loop !71

102:                                              ; preds = %32
  %103 = load i32, ptr %9, align 4, !tbaa !13
  %104 = and i32 %103, 1
  %105 = icmp ne i32 %104, 0
  br i1 %105, label %106, label %108

106:                                              ; preds = %102
  %107 = load i32, ptr %10, align 4, !tbaa !13
  br label %110

108:                                              ; preds = %102
  %109 = load i32, ptr %11, align 4, !tbaa !13
  br label %110

110:                                              ; preds = %108, %106
  %111 = phi i32 [ %107, %106 ], [ %109, %108 ]
  store i32 %111, ptr %12, align 4, !tbaa !13
  %112 = load i32, ptr %9, align 4, !tbaa !13
  %113 = and i32 %112, 4
  %114 = icmp ne i32 %113, 0
  br i1 %114, label %145, label %115

115:                                              ; preds = %110
  br label %116

116:                                              ; preds = %137, %115
  %117 = load i32, ptr %12, align 4, !tbaa !13
  %118 = icmp sge i32 %117, 0
  br i1 %118, label %119, label %135

119:                                              ; preds = %116
  %120 = load i32, ptr %12, align 4, !tbaa !13
  %121 = load i32, ptr %7, align 4, !tbaa !13
  %122 = icmp slt i32 %120, %121
  br i1 %122, label %123, label %135

123:                                              ; preds = %119
  %124 = load ptr, ptr %6, align 8, !tbaa !65
  %125 = load i32, ptr %12, align 4, !tbaa !13
  %126 = sext i32 %125 to i64
  %127 = getelementptr inbounds %struct.AVIndexEntry, ptr %124, i64 %126
  %128 = getelementptr inbounds nuw %struct.AVIndexEntry, ptr %127, i32 0, i32 2
  %129 = load i32, ptr %128, align 8
  %130 = shl i32 %129, 30
  %131 = ashr i32 %130, 30
  %132 = and i32 %131, 1
  %133 = icmp ne i32 %132, 0
  %134 = xor i1 %133, true
  br label %135

135:                                              ; preds = %123, %119, %116
  %136 = phi i1 [ false, %119 ], [ false, %116 ], [ %134, %123 ]
  br i1 %136, label %137, label %144

137:                                              ; preds = %135
  %138 = load i32, ptr %9, align 4, !tbaa !13
  %139 = and i32 %138, 1
  %140 = icmp ne i32 %139, 0
  %141 = select i1 %140, i32 -1, i32 1
  %142 = load i32, ptr %12, align 4, !tbaa !13
  %143 = add nsw i32 %142, %141
  store i32 %143, ptr %12, align 4, !tbaa !13
  br label %116, !llvm.loop !72

144:                                              ; preds = %135
  br label %145

145:                                              ; preds = %144, %110
  %146 = load i32, ptr %12, align 4, !tbaa !13
  %147 = load i32, ptr %7, align 4, !tbaa !13
  %148 = icmp eq i32 %146, %147
  br i1 %148, label %149, label %150

149:                                              ; preds = %145
  store i32 -1, ptr %5, align 4
  store i32 1, ptr %14, align 4
  br label %152

150:                                              ; preds = %145
  %151 = load i32, ptr %12, align 4, !tbaa !13
  store i32 %151, ptr %5, align 4
  store i32 1, ptr %14, align 4
  br label %152

152:                                              ; preds = %150, %149
  call void @llvm.lifetime.end.p0(i64 8, ptr %13) #11
  call void @llvm.lifetime.end.p0(i64 4, ptr %12) #11
  call void @llvm.lifetime.end.p0(i64 4, ptr %11) #11
  call void @llvm.lifetime.end.p0(i64 4, ptr %10) #11
  %153 = load i32, ptr %5, align 4
  ret i32 %153
}