; Function Attrs: nofree norecurse nosync nounwind memory(argmem: read) uwtable
define i32 @ff_index_search_timestamp(ptr noundef readonly captures(none) %0, i32 noundef %1, i64 noundef %2, i32 noundef %3) local_unnamed_addr #7 {
  %.not = icmp eq i32 %1, 0
  br i1 %.not, label %11, label %5

5:                                                ; preds = %4
  %6 = add nsw i32 %1, -1
  %7 = sext i32 %6 to i64
  %8 = getelementptr inbounds %struct.AVIndexEntry, ptr %0, i64 %7, i32 1
  %9 = load i64, ptr %8, align 8, !tbaa !59
  %10 = icmp slt i64 %9, %2
  %spec.select = select i1 %10, i32 %6, i32 -1
  br label %11

11:                                               ; preds = %5, %4
  %.052 = phi i32 [ -1, %4 ], [ %spec.select, %5 ]
  %12 = sub nsw i32 %1, %.052
  %13 = icmp sgt i32 %12, 1
  br i1 %13, label %.lr.ph77, label %._crit_edge

.lr.ph77:                                         ; preds = %11
  %14 = add nsw i32 %1, -1
  %15 = sext i32 %14 to i64
  br label %16

16:                                               ; preds = %.lr.ph77, %.critedge
  %.05076 = phi i32 [ %1, %.lr.ph77 ], [ %spec.select69, %.critedge ]
  %.15375 = phi i32 [ %.052, %.lr.ph77 ], [ %.254, %.critedge ]
  %17 = add nsw i32 %.05076, %.15375
  %18 = ashr i32 %17, 1
  %19 = sext i32 %18 to i64
  %20 = getelementptr inbounds %struct.AVIndexEntry, ptr %0, i64 %19, i32 2
  %21 = load i32, ptr %20, align 8
  %22 = and i32 %21, 2
  %.not6271 = icmp ne i32 %22, 0
  %23 = icmp slt i32 %18, %.05076
  %or.cond6672 = and i1 %23, %.not6271
  %24 = icmp slt i32 %18, %14
  %or.cond6873 = select i1 %or.cond6672, i1 %24, i1 false
  br i1 %or.cond6873, label %.lr.ph.preheader, label %.critedge

.lr.ph.preheader:                                 ; preds = %16
  %25 = sext i32 %.05076 to i64
  %26 = getelementptr inbounds %struct.AVIndexEntry, ptr %0, i64 %25, i32 1
  br label %.lr.ph

.lr.ph:                                           ; preds = %.lr.ph.preheader, %32
  %indvars.iv = phi i64 [ %19, %.lr.ph.preheader ], [ %indvars.iv.next, %32 ]
  %indvars.iv.next = add nsw i64 %indvars.iv, 1
  %27 = icmp eq i64 %indvars.iv.next, %25
  br i1 %27, label %28, label %32

28:                                               ; preds = %.lr.ph
  %29 = load i64, ptr %26, align 8, !tbaa !59
  %.not63 = icmp slt i64 %29, %2
  br i1 %.not63, label %32, label %30

30:                                               ; preds = %28
  %31 = add nsw i32 %.05076, -1
  br label %.critedge

32:                                               ; preds = %28, %.lr.ph
  %33 = getelementptr inbounds %struct.AVIndexEntry, ptr %0, i64 %indvars.iv.next, i32 2
  %34 = load i32, ptr %33, align 8
  %35 = and i32 %34, 2
  %.not62 = icmp ne i32 %35, 0
  %36 = icmp slt i64 %indvars.iv.next, %25
  %or.cond66 = and i1 %36, %.not62
  %37 = icmp slt i64 %indvars.iv.next, %15
  %or.cond68 = select i1 %or.cond66, i1 %37, i1 false
  br i1 %or.cond68, label %.lr.ph, label %.critedge.loopexit, !llvm.loop !61

.critedge.loopexit:                               ; preds = %32
  %38 = trunc nsw i64 %indvars.iv.next to i32
  br label %.critedge

.critedge:                                        ; preds = %.critedge.loopexit, %16, %30
  %.1 = phi i32 [ %31, %30 ], [ %18, %16 ], [ %38, %.critedge.loopexit ]
  %39 = sext i32 %.1 to i64
  %40 = getelementptr inbounds %struct.AVIndexEntry, ptr %0, i64 %39, i32 1
  %41 = load i64, ptr %40, align 8, !tbaa !59
  %.not64 = icmp slt i64 %41, %2
  %spec.select69 = select i1 %.not64, i32 %.05076, i32 %.1
  %.not65 = icmp sgt i64 %41, %2
  %.254 = select i1 %.not65, i32 %.15375, i32 %.1
  %42 = sub nsw i32 %spec.select69, %.254
  %43 = icmp sgt i32 %42, 1
  br i1 %43, label %16, label %._crit_edge, !llvm.loop !62

._crit_edge:                                      ; preds = %.critedge, %11
  %.153.lcssa = phi i32 [ %.052, %11 ], [ %.254, %.critedge ]
  %.050.lcssa = phi i32 [ %1, %11 ], [ %spec.select69, %.critedge ]
  %44 = and i32 %3, 1
  %.not60 = icmp eq i32 %44, 0
  %45 = select i1 %.not60, i32 %.050.lcssa, i32 %.153.lcssa
  %46 = and i32 %3, 4
  %47 = icmp eq i32 %46, 0
  %48 = icmp sgt i32 %45, -1
  %or.cond = and i1 %47, %48
  br i1 %or.cond, label %.preheader, label %.critedge2

.preheader:                                       ; preds = %._crit_edge
  %49 = select i1 %.not60, i32 1, i32 -1
  br label %50

50:                                               ; preds = %.preheader, %57
  %.3 = phi i32 [ %58, %57 ], [ %45, %.preheader ]
  %51 = icmp slt i32 %.3, %1
  br i1 %51, label %52, label %.critedge2

52:                                               ; preds = %50
  %53 = zext nneg i32 %.3 to i64
  %54 = getelementptr inbounds nuw %struct.AVIndexEntry, ptr %0, i64 %53, i32 2
  %55 = load i32, ptr %54, align 8
  %56 = and i32 %55, 1
  %.not61 = icmp eq i32 %56, 0
  br i1 %.not61, label %57, label %.critedge2

57:                                               ; preds = %52
  %58 = add nsw i32 %.3, %49
  %.old3 = icmp sgt i32 %58, -1
  br i1 %.old3, label %50, label %.critedge2

.critedge2:                                       ; preds = %52, %57, %50, %._crit_edge
  %.2 = phi i32 [ %45, %._crit_edge ], [ %.3, %50 ], [ %.3, %52 ], [ -1, %57 ]
  %59 = icmp eq i32 %.2, %1
  %..2 = select i1 %59, i32 -1, i32 %.2
  ret i32 %..2
}